; Function Attrs: inlinehint mustprogress optsize uwtable
define internal noundef nonnull ptr @_ZZN8nanobind6detail11func_createILb0ELb1EZNS_11bind_vectorISt6vectorIZL38nanobind_init_test_stl_bind_vector_extRNS_7module_EE2ElSaIS6_EELNS_9rv_policyE1EJEEENS_6class_IT_JEEENS_6handleEPKcDpOT1_EUlRS8_E0_vJSJ_EJLm0EEJNS_5scopeENS_4nameENS_9is_methodEA28_cEEEP7_objectOT1_PFT2_DpT3_ESt16integer_sequenceImJXspT4_EEEDpRKT5_ENUlPvPSQ_PhS9_PNS0_12cleanup_listEE_8__invokeES14_S15_S16_S9_S18_(ptr readnone captures(none) %0, ptr noundef readonly captures(none) %1, ptr noundef readonly captures(none) %2, i32 %3, ptr noundef %4) #12 align 2 personality ptr @__gxx_personality_v0 {
  %6 = alloca %"struct.nanobind::detail::tuple.456", align 8
  call void @llvm.lifetime.start.p0(i64 8, ptr nonnull %6) #26
  %7 = load ptr, ptr %1, align 8, !tbaa !89
  %8 = load i8, ptr %2, align 1, !tbaa !34
  %9 = call noundef zeroext i1 @_ZN8nanobind6detail11nb_type_getEPKSt9type_infoP7_objecthPNS0_12cleanup_listEPPv(ptr noundef nonnull @_ZTISt6vectorIZL38nanobind_init_test_stl_bind_vector_extRN8nanobind7module_EE2ElSaIS3_EE, ptr noundef %7, i8 noundef zeroext %8, ptr noundef %4, ptr noundef nonnull align 8 dereferenceable(8) %6) #27
  br i1 %9, label %10, label %_ZZN8nanobind6detail11func_createILb0ELb1EZNS_11bind_vectorISt6vectorIZL38nanobind_init_test_stl_bind_vector_extRNS_7module_EE2ElSaIS6_EELNS_9rv_policyE1EJEEENS_6class_IT_JEEENS_6handleEPKcDpOT1_EUlRS8_E0_vJSJ_EJLm0EEJNS_5scopeENS_4nameENS_9is_methodEA28_cEEEP7_objectOT1_PFT2_DpT3_ESt16integer_sequenceImJXspT4_EEEDpRKT5_ENKUlPvPSQ_PhS9_PNS0_12cleanup_listEE_clES14_S15_S16_S9_S18_.exit

10:                                               ; preds = %5
  %11 = load ptr, ptr %6, align 8, !tbaa !247
  call void @_ZN8nanobind6detail27raise_next_overload_if_nullEPv(ptr noundef %11) #25
  %12 = load ptr, ptr %6, align 8, !tbaa !247
  %13 = load ptr, ptr %12, align 8, !tbaa !241
  %14 = getelementptr inbounds nuw i8, ptr %12, i64 8
  %15 = load ptr, ptr %14, align 8, !tbaa !243
  %.not.i.i.i = icmp eq ptr %15, %13
  br i1 %.not.i.i.i, label %_ZZN8nanobind11bind_vectorISt6vectorIZL38nanobind_init_test_stl_bind_vector_extRNS_7module_EE2ElSaIS4_EELNS_9rv_policyE1EJEEENS_6class_IT_JEEENS_6handleEPKcDpOT1_ENKUlRS6_E0_clESH_.exit, label %16

16:                                               ; preds = %10
  store ptr %13, ptr %14, align 8, !tbaa !243
  br label %_ZZN8nanobind11bind_vectorISt6vectorIZL38nanobind_init_test_stl_bind_vector_extRNS_7module_EE2ElSaIS4_EELNS_9rv_policyE1EJEEENS_6class_IT_JEEENS_6handleEPKcDpOT1_ENKUlRS6_E0_clESH_.exit

_ZZN8nanobind11bind_vectorISt6vectorIZL38nanobind_init_test_stl_bind_vector_extRNS_7module_EE2ElSaIS4_EELNS_9rv_policyE1EJEEENS_6class_IT_JEEENS_6handleEPKcDpOT1_ENKUlRS6_E0_clESH_.exit: ; preds = %10, %16
  %17 = load i64, ptr @_Py_NoneStruct, align 8, !tbaa !41
  %18 = add nsw i64 %17, 1
  store i64 %18, ptr @_Py_NoneStruct, align 8, !tbaa !41
  br label %_ZZN8nanobind6detail11func_createILb0ELb1EZNS_11bind_vectorISt6vectorIZL38nanobind_init_test_stl_bind_vector_extRNS_7module_EE2ElSaIS6_EELNS_9rv_policyE1EJEEENS_6class_IT_JEEENS_6handleEPKcDpOT1_EUlRS8_E0_vJSJ_EJLm0EEJNS_5scopeENS_4nameENS_9is_methodEA28_cEEEP7_objectOT1_PFT2_DpT3_ESt16integer_sequenceImJXspT4_EEEDpRKT5_ENKUlPvPSQ_PhS9_PNS0_12cleanup_listEE_clES14_S15_S16_S9_S18_.exit

_ZZN8nanobind6detail11func_createILb0ELb1EZNS_11bind_vectorISt6vectorIZL38nanobind_init_test_stl_bind_vector_extRNS_7module_EE2ElSaIS6_EELNS_9rv_policyE1EJEEENS_6class_IT_JEEENS_6handleEPKcDpOT1_EUlRS8_E0_vJSJ_EJLm0EEJNS_5scopeENS_4nameENS_9is_methodEA28_cEEEP7_objectOT1_PFT2_DpT3_ESt16integer_sequenceImJXspT4_EEEDpRKT5_ENKUlPvPSQ_PhS9_PNS0_12cleanup_listEE_clES14_S15_S16_S9_S18_.exit: ; preds = %5, %_ZZN8nanobind11bind_vectorISt6vectorIZL38nanobind_init_test_stl_bind_vector_extRNS_7module_EE2ElSaIS4_EELNS_9rv_policyE1EJEEENS_6class_IT_JEEENS_6handleEPKcDpOT1_ENKUlRS6_E0_clESH_.exit
  %.0.i = phi ptr [ @_Py_NoneStruct, %_ZZN8nanobind11bind_vectorISt6vectorIZL38nanobind_init_test_stl_bind_vector_extRNS_7module_EE2ElSaIS4_EELNS_9rv_policyE1EJEEENS_6class_IT_JEEENS_6handleEPKcDpOT1_ENKUlRS6_E0_clESH_.exit ], [ inttoptr (i64 1 to ptr), %5 ]
  call void @llvm.lifetime.end.p0(i64 8, ptr nonnull %6) #26
  ret ptr %.0.i
}